target datalayout = "e-m:e-p270:32:32-p271:32:32-p272:64:64-i64:64-i128:128-f80:128-n8:16:32:64-S128"
target triple = "x86_64-pc-linux-gnu"

%struct._value_string_ext = type { ptr, i32, i32, ptr, ptr }
%struct._dcerpc_info = type { ptr, i32, i64, i8, i8, i8, i32, i32, i32, i32, i32, i32, i32, i32, ptr, ptr, ptr, ptr, %struct.anon }
%struct.anon = type { i8, ptr, ptr, ptr, i8 }
%struct.nstime_t = type { i64, i32 }
%struct._packet_info = type { ptr, ptr, i32, i32, %struct.nstime_t, %struct.nstime_t, %struct.nstime_t, i8, ptr, ptr, ptr, ptr, %struct._address, %struct._address, %struct._address, %struct._address, %struct._address, %struct._address, i32, ptr, i8, [3 x i8], %struct.anon.0, i32, i32, i32, i32, ptr, i8, ptr, ptr, i16, i16, i32, i32, i16, i32, i32, ptr, ptr, ptr, i8, i8, i16, i16, i16, i32, i16, i16, ptr, ptr, ptr, ptr, ptr, i32, i32 }
%struct._address = type { i32, i32, ptr, ptr }
%struct.anon.0 = type { i8, [3 x i8] }

@hf_samr_status = internal global i32 0, align 4
@NT_errors_ext = external global %struct._value_string_ext, align 8
@.str.1227 = private unnamed_addr constant [13 x i8] c"SetGroupInfo\00", align 1
@.str.1282 = private unnamed_addr constant [12 x i8] c", Error: %s\00", align 1
@.str.1283 = private unnamed_addr constant [25 x i8] c"Unknown NT status 0x%08x\00", align 1

; Function Attrs: null_pointer_is_valid sspstrong uwtable
define internal i32 @samr_dissect_SetGroupInfo_response(ptr noundef %0, i32 noundef %1, ptr noundef %2, ptr noundef %3, ptr noundef %4, ptr noundef %5) #0 {
  %7 = alloca ptr, align 8
  %8 = alloca i32, align 4
  %9 = alloca ptr, align 8
  %10 = alloca ptr, align 8
  %11 = alloca ptr, align 8
  %12 = alloca ptr, align 8
  %13 = alloca i32, align 4
  store ptr %0, ptr %7, align 8
  store i32 %1, ptr %8, align 4
  store ptr %2, ptr %9, align 8
  store ptr %3, ptr %10, align 8
  store ptr %4, ptr %11, align 8
  store ptr %5, ptr %12, align 8
  call void @llvm.lifetime.start.p0(i64 4, ptr %13) #4
  %14 = load ptr, ptr %11, align 8
  %15 = getelementptr inbounds nuw %struct._dcerpc_info, ptr %14, i32 0, i32 15
  store ptr @.str.1227, ptr %15, align 8
  %16 = load ptr, ptr %7, align 8
  %17 = load i32, ptr %8, align 4
  %18 = load ptr, ptr %9, align 8
  %19 = load ptr, ptr %10, align 8
  %20 = load ptr, ptr %11, align 8
  %21 = load ptr, ptr %12, align 8
  %22 = load i32, ptr @hf_samr_status, align 4
  %23 = call i32 @dissect_ntstatus(ptr noundef %16, i32 noundef %17, ptr noundef %18, ptr noundef %19, ptr noundef %20, ptr noundef %21, i32 noundef %22, ptr noundef %13)
  store i32 %23, ptr %8, align 4
  %24 = load i32, ptr %13, align 4
  %25 = icmp ne i32 %24, 0
  br i1 %25, label %26, label %32

26:                                               ; preds = %6
  %27 = load ptr, ptr %9, align 8
  %28 = getelementptr inbounds nuw %struct._packet_info, ptr %27, i32 0, i32 1
  %29 = load ptr, ptr %28, align 8
  %30 = load i32, ptr %13, align 4
  %31 = call ptr @val_to_str_ext(i32 noundef %30, ptr noundef @NT_errors_ext, ptr noundef @.str.1283)
  call void (ptr, i32, ptr, ...) @col_append_fstr(ptr noundef %29, i32 noundef 25, ptr noundef @.str.1282, ptr noundef %31)
  br label %32

32:                                               ; preds = %26, %6
  %33 = load i32, ptr %8, align 4
  call void @llvm.lifetime.end.p0(i64 4, ptr %13) #4
  ret i32 %33
}